; Function Attrs: inlinehint mustprogress optsize uwtable
define internal noundef ptr @"_ZZN8nanobind6detail11func_createILb0ELb1EZL30nanobind_init_test_holders_extRNS_7module_EE4$_1215SharedWrapperSTJP9ExampleSTEJLm0EEJNS_5scopeENS_4nameEEEEP7_objectOT1_PFT2_DpT3_ESt16integer_sequenceImJXspT4_EEEDpRKT5_ENUlPvPSB_PhNS_9rv_policyEPNS0_12cleanup_listEE_8__invokeESP_SQ_SR_SS_SU_"(ptr readnone captures(none) %0, ptr noundef readonly captures(none) %1, ptr noundef readonly captures(none) %2, i32 noundef %3, ptr noundef %4) #8 align 2 personality ptr @__gxx_personality_v0 {
  %6 = alloca %"struct.nanobind::detail::tuple.223", align 8
  %7 = alloca %struct.SharedWrapperST, align 8
  call void @llvm.lifetime.start.p0(i64 8, ptr nonnull %6) #26
  %8 = load ptr, ptr %1, align 8, !tbaa !115
  %9 = load i8, ptr %2, align 1, !tbaa !37
  %10 = call noundef zeroext i1 @_ZN8nanobind6detail11nb_type_getEPKSt9type_infoP7_objecthPNS0_12cleanup_listEPPv(ptr noundef nonnull @_ZTI9ExampleST, ptr noundef %8, i8 noundef zeroext %9, ptr noundef %4, ptr noundef nonnull align 8 dereferenceable(8) %6) #27
  br i1 %10, label %11, label %"_ZZN8nanobind6detail11func_createILb0ELb1EZL30nanobind_init_test_holders_extRNS_7module_EE4$_1215SharedWrapperSTJP9ExampleSTEJLm0EEJNS_5scopeENS_4nameEEEEP7_objectOT1_PFT2_DpT3_ESt16integer_sequenceImJXspT4_EEEDpRKT5_ENKUlPvPSB_PhNS_9rv_policyEPNS0_12cleanup_listEE_clESP_SQ_SR_SS_SU_.exit"

11:                                               ; preds = %5
  call void @llvm.lifetime.start.p0(i64 16, ptr nonnull %7) #26
  %12 = load ptr, ptr %6, align 8, !tbaa !211
  call void @_ZNSt12__shared_ptrI9ExampleSTLN9__gnu_cxx12_Lock_policyE2EEC2IS0_vEERKSt10__weak_ptrIT_LS2_2EE(ptr noundef nonnull align 8 dereferenceable(16) %7, ptr noundef nonnull align 8 dereferenceable(16) %12) #25
  %or.cond.i = icmp ult i32 %3, 2
  %13 = add i32 %3, -5
  %14 = icmp ult i32 %13, 2
  %or.cond5.i = or i1 %or.cond.i, %14
  %spec.store.select.i = select i1 %or.cond5.i, i32 4, i32 %3
  %15 = call noundef ptr @_ZN8nanobind6detail11nb_type_putEPKSt9type_infoPvNS_9rv_policyEPNS0_12cleanup_listEPb(ptr noundef nonnull @_ZTI15SharedWrapperST, ptr noundef nonnull align 8 dereferenceable(16) %7, i32 noundef %spec.store.select.i, ptr noundef %4, ptr noundef null) #27
  %16 = getelementptr inbounds nuw i8, ptr %7, i64 8
  call void @_ZNSt14__shared_countILN9__gnu_cxx12_Lock_policyE2EED2Ev(ptr noundef nonnull align 8 dereferenceable(8) %16) #27
  call void @llvm.lifetime.end.p0(i64 16, ptr nonnull %7) #26
  br label %"_ZZN8nanobind6detail11func_createILb0ELb1EZL30nanobind_init_test_holders_extRNS_7module_EE4$_1215SharedWrapperSTJP9ExampleSTEJLm0EEJNS_5scopeENS_4nameEEEEP7_objectOT1_PFT2_DpT3_ESt16integer_sequenceImJXspT4_EEEDpRKT5_ENKUlPvPSB_PhNS_9rv_policyEPNS0_12cleanup_listEE_clESP_SQ_SR_SS_SU_.exit"

"_ZZN8nanobind6detail11func_createILb0ELb1EZL30nanobind_init_test_holders_extRNS_7module_EE4$_1215SharedWrapperSTJP9ExampleSTEJLm0EEJNS_5scopeENS_4nameEEEEP7_objectOT1_PFT2_DpT3_ESt16integer_sequenceImJXspT4_EEEDpRKT5_ENKUlPvPSB_PhNS_9rv_policyEPNS0_12cleanup_listEE_clESP_SQ_SR_SS_SU_.exit": ; preds = %5, %11
  %.0.i = phi ptr [ %15, %11 ], [ inttoptr (i64 1 to ptr), %5 ]
  call void @llvm.lifetime.end.p0(i64 8, ptr nonnull %6) #26
  ret ptr %.0.i
}